target datalayout = "e-m:e-p270:32:32-p271:32:32-p272:64:64-i64:64-i128:128-f80:128-n8:16:32:64-S128"
target triple = "x86_64-pc-linux-gnu"

%"class.absl::NoDestructor" = type { %"class.absl::NoDestructor<absl::profiling_internal::SampleRecorder<absl::container_internal::HashtablezInfo>>::PlacementImpl" }
%"class.absl::NoDestructor<absl::profiling_internal::SampleRecorder<absl::container_internal::HashtablezInfo>>::PlacementImpl" = type { [712 x i8] }

@_ZZN4absl18container_internal23GlobalHashtablezSamplerEvE7sampler = internal global %"class.absl::NoDestructor" zeroinitializer, align 8
@_ZGVZN4absl18container_internal23GlobalHashtablezSamplerEvE7sampler = internal global i64 0, align 8

; Function Attrs: mustprogress nounwind uwtable
define linkonce_odr dso_local noundef ptr @_ZSt7launderIN4absl18profiling_internal14SampleRecorderINS0_18container_internal14HashtablezInfoEEEEPT_S7_(ptr noundef %0) #4 comdat {
  %2 = alloca ptr, align 8
  store ptr %0, ptr %2, align 8, !tbaa !60
  %3 = load ptr, ptr %2, align 8, !tbaa !60
  ret ptr %3
}

; Function Attrs: mustprogress nounwind uwtable
define linkonce_odr dso_local noundef ptr @_ZN4absl12NoDestructorINS_18profiling_internal14SampleRecorderINS_18container_internal14HashtablezInfoEEEE13PlacementImpl7LaunderIS5_EEPT_SA_(ptr noundef %0) #4 comdat align 2 {
  %2 = alloca ptr, align 8
  store ptr %0, ptr %2, align 8, !tbaa !60
  %3 = load ptr, ptr %2, align 8, !tbaa !60
  %4 = call noundef ptr @_ZSt7launderIN4absl18profiling_internal14SampleRecorderINS0_18container_internal14HashtablezInfoEEEEPT_S7_(ptr noundef %3) #1
  ret ptr %4
}

; Function Attrs: mustprogress uwtable
define linkonce_odr dso_local noundef ptr @_ZN4absl12NoDestructorINS_18profiling_internal14SampleRecorderINS_18container_internal14HashtablezInfoEEEE13PlacementImpl3getEv(ptr noundef nonnull align 8 dereferenceable(712) %0) #0 comdat align 2 {
  %2 = alloca ptr, align 8
  store ptr %0, ptr %2, align 8, !tbaa !77
  %3 = load ptr, ptr %2, align 8
  %4 = getelementptr inbounds nuw %"class.absl::NoDestructor<absl::profiling_internal::SampleRecorder<absl::container_internal::HashtablezInfo>>::PlacementImpl", ptr %3, i32 0, i32 0
  %5 = call noundef ptr @_ZN4absl12NoDestructorINS_18profiling_internal14SampleRecorderINS_18container_internal14HashtablezInfoEEEE13PlacementImpl7LaunderIS5_EEPT_SA_(ptr noundef %4)
  ret ptr %5
}

; Function Attrs: mustprogress uwtable
define linkonce_odr dso_local noundef ptr @_ZN4absl12NoDestructorINS_18profiling_internal14SampleRecorderINS_18container_internal14HashtablezInfoEEEE3getEv(ptr noundef nonnull align 8 dereferenceable(712) %0) #0 comdat align 2 {
  %2 = alloca ptr, align 8
  store ptr %0, ptr %2, align 8, !tbaa !5
  %3 = load ptr, ptr %2, align 8
  %4 = getelementptr inbounds nuw %"class.absl::NoDestructor", ptr %3, i32 0, i32 0
  %5 = call noundef ptr @_ZN4absl12NoDestructorINS_18profiling_internal14SampleRecorderINS_18container_internal14HashtablezInfoEEEE13PlacementImpl3getEv(ptr noundef nonnull align 8 dereferenceable(712) %4)
  ret ptr %5
}

; Function Attrs: mustprogress uwtable
define linkonce_odr dso_local noundef nonnull align 8 dereferenceable(712) ptr @_ZN4absl12NoDestructorINS_18profiling_internal14SampleRecorderINS_18container_internal14HashtablezInfoEEEEdeEv(ptr noundef nonnull align 8 dereferenceable(712) %0) #0 comdat align 2 {
  %2 = alloca ptr, align 8
  store ptr %0, ptr %2, align 8, !tbaa !5
  %3 = load ptr, ptr %2, align 8
  %4 = call noundef ptr @_ZN4absl12NoDestructorINS_18profiling_internal14SampleRecorderINS_18container_internal14HashtablezInfoEEEE3getEv(ptr noundef nonnull align 8 dereferenceable(712) %3)
  ret ptr %4
}

; Function Attrs: mustprogress uwtable
define dso_local noundef nonnull align 8 dereferenceable(712) ptr @_ZN4absl18container_internal23GlobalHashtablezSamplerEv() #0 personality ptr @__gxx_personality_v0 {
  %1 = alloca ptr, align 8
  %2 = alloca i32, align 4
  %3 = load atomic i8, ptr @_ZGVZN4absl18container_internal23GlobalHashtablezSamplerEvE7sampler acquire, align 8
  %4 = icmp eq i8 %3, 0
  br i1 %4, label %5, label %10, !prof !4

5:                                                ; preds = %0
  %6 = call i32 @__cxa_guard_acquire(ptr @_ZGVZN4absl18container_internal23GlobalHashtablezSamplerEvE7sampler) #1
  %7 = icmp ne i32 %6, 0
  br i1 %7, label %8, label %10

8:                                                ; preds = %5
  invoke void @_ZN4absl12NoDestructorINS_18profiling_internal14SampleRecorderINS_18container_internal14HashtablezInfoEEEEC2IJETnNSt9enable_ifIXntsr3std7is_sameIFvDpRNSt5decayIT_E4typeEEFvRS6_EEE5valueEiE4typeELi0EEEDpOSA_(ptr noundef nonnull align 8 dereferenceable(712) @_ZZN4absl18container_internal23GlobalHashtablezSamplerEvE7sampler)
          to label %9 unwind label %12

9:                                                ; preds = %8
  call void @__cxa_guard_release(ptr @_ZGVZN4absl18container_internal23GlobalHashtablezSamplerEvE7sampler) #1
  br label %10

10:                                               ; preds = %9, %5, %0
  %11 = call noundef nonnull align 8 dereferenceable(712) ptr @_ZN4absl12NoDestructorINS_18profiling_internal14SampleRecorderINS_18container_internal14HashtablezInfoEEEEdeEv(ptr noundef nonnull align 8 dereferenceable(712) @_ZZN4absl18container_internal23GlobalHashtablezSamplerEvE7sampler)
  ret ptr %11

12:                                               ; preds = %8
  %13 = landingpad { ptr, i32 }
          cleanup
  %14 = extractvalue { ptr, i32 } %13, 0
  store ptr %14, ptr %1, align 8
  %15 = extractvalue { ptr, i32 } %13, 1
  store i32 %15, ptr %2, align 4
  call void @__cxa_guard_abort(ptr @_ZGVZN4absl18container_internal23GlobalHashtablezSamplerEvE7sampler) #1
  br label %16

16:                                               ; preds = %12
  %17 = load ptr, ptr %1, align 8
  %18 = load i32, ptr %2, align 4
  %19 = insertvalue { ptr, i32 } poison, ptr %17, 0
  %20 = insertvalue { ptr, i32 } %19, i32 %18, 1
  resume { ptr, i32 } %20
}