; Function Attrs: mustprogress uwtable
define dso_local noundef nonnull align 8 dereferenceable(712) ptr @_ZN4absl18container_internal23GlobalHashtablezSamplerEv() local_unnamed_addr #0 personality ptr @__gxx_personality_v0 {
  %1 = load atomic i8, ptr @_ZGVZN4absl18container_internal23GlobalHashtablezSamplerEvE7sampler acquire, align 8
  %2 = icmp eq i8 %1, 0
  br i1 %2, label %3, label %7, !prof !4

3:                                                ; preds = %0
  %4 = tail call i32 @__cxa_guard_acquire(ptr nonnull @_ZGVZN4absl18container_internal23GlobalHashtablezSamplerEvE7sampler) #13
  %.not = icmp eq i32 %4, 0
  br i1 %.not, label %7, label %5

5:                                                ; preds = %3
  invoke void @_ZN4absl12NoDestructorINS_18profiling_internal14SampleRecorderINS_18container_internal14HashtablezInfoEEEEC2IJETnNSt9enable_ifIXntsr3std7is_sameIFvDpRNSt5decayIT_E4typeEEFvRS6_EEE5valueEiE4typeELi0EEEDpOSA_(ptr noundef nonnull align 8 dereferenceable(712) @_ZZN4absl18container_internal23GlobalHashtablezSamplerEvE7sampler)
          to label %6 unwind label %8

6:                                                ; preds = %5
  tail call void @__cxa_guard_release(ptr nonnull @_ZGVZN4absl18container_internal23GlobalHashtablezSamplerEvE7sampler) #13
  br label %7

7:                                                ; preds = %6, %3, %0
  ret ptr @_ZZN4absl18container_internal23GlobalHashtablezSamplerEvE7sampler

8:                                                ; preds = %5
  %9 = landingpad { ptr, i32 }
          cleanup
  tail call void @__cxa_guard_abort(ptr nonnull @_ZGVZN4absl18container_internal23GlobalHashtablezSamplerEvE7sampler) #13
  resume { ptr, i32 } %9
}